target datalayout = "e-m:e-p270:32:32-p271:32:32-p272:64:64-i64:64-i128:128-f80:128-n8:16:32:64-S128"
target triple = "x86_64-pc-linux-gnu"

%class.symbol = type { ptr }
%"class.datalog::tr_infrastructure<datalog::table_traits>::plugin_object" = type { ptr, i32, %class.symbol, ptr }
%"class.datalog::lazy_table_ref" = type { ptr, ptr, %"class.datalog::table_signature", i32, %"class.datalog::scoped_rel" }
%"class.datalog::table_signature" = type <{ %"class.datalog::tr_infrastructure<datalog::table_traits>::signature_base", i32, [4 x i8] }>
%"class.datalog::tr_infrastructure<datalog::table_traits>::signature_base" = type { %class.svector }
%class.svector = type { %class.vector }
%class.vector = type { ptr }
%"class.datalog::scoped_rel" = type { ptr }
%class.ref = type { ptr }
%"class.datalog::verbose_action" = type { i32, ptr }
%"class.datalog::lazy_table_filter_equal" = type { %"class.datalog::lazy_table_ref", i32, i64, %class.ref }

@.str.10 = private unnamed_addr constant [13 x i8] c"filter_equal\00", align 1

; Function Attrs: mustprogress uwtable
define linkonce_odr hidden void @_Z7deallocIN7datalog14lazy_table_refEEvPT_(ptr noundef %0) #4 comdat {
  %2 = alloca ptr, align 8
  store ptr %0, ptr %2, align 8, !tbaa !41
  %3 = load ptr, ptr %2, align 8, !tbaa !41
  %4 = icmp eq ptr %3, null
  br i1 %4, label %5, label %6

5:                                                ; preds = %1
  br label %12

6:                                                ; preds = %1
  %7 = load ptr, ptr %2, align 8, !tbaa !41
  %8 = load ptr, ptr %7, align 8, !tbaa !13
  %9 = getelementptr inbounds ptr, ptr %8, i64 1
  %10 = load ptr, ptr %9, align 8
  call void %10(ptr noundef nonnull align 8 dereferenceable(48) %7) #3
  %11 = load ptr, ptr %2, align 8, !tbaa !41
  call void @_ZN6memory10deallocateEPv(ptr noundef %11)
  br label %12

12:                                               ; preds = %6, %5
  ret void
}

; Function Attrs: mustprogress uwtable
define linkonce_odr hidden void @_ZN7datalog14lazy_table_ref7dec_refEv(ptr noundef nonnull align 8 dereferenceable(48) %0) #4 comdat align 2 {
  %2 = alloca ptr, align 8
  store ptr %0, ptr %2, align 8, !tbaa !41
  %3 = load ptr, ptr %2, align 8
  %4 = getelementptr inbounds nuw %"class.datalog::lazy_table_ref", ptr %3, i32 0, i32 3
  %5 = load i32, ptr %4, align 8, !tbaa !148
  %6 = add i32 %5, -1
  store i32 %6, ptr %4, align 8, !tbaa !148
  %7 = getelementptr inbounds nuw %"class.datalog::lazy_table_ref", ptr %3, i32 0, i32 3
  %8 = load i32, ptr %7, align 8, !tbaa !148
  %9 = icmp eq i32 0, %8
  br i1 %9, label %10, label %11

10:                                               ; preds = %1
  call void @_Z7deallocIN7datalog14lazy_table_refEEvPT_(ptr noundef %3)
  br label %11

11:                                               ; preds = %10, %1
  ret void
}

; Function Attrs: mustprogress nounwind uwtable
define linkonce_odr hidden noundef nonnull align 8 dereferenceable(200) ptr @_ZNK7datalog17tr_infrastructureINS_12table_traitsEE13plugin_object11get_managerEv(ptr noundef nonnull align 8 dereferenceable(32) %0) #7 comdat align 2 {
  %2 = alloca ptr, align 8
  store ptr %0, ptr %2, align 8, !tbaa !19
  %3 = load ptr, ptr %2, align 8
  %4 = getelementptr inbounds nuw %"class.datalog::tr_infrastructure<datalog::table_traits>::plugin_object", ptr %3, i32 0, i32 3
  %5 = load ptr, ptr %4, align 8, !tbaa !60
  ret ptr %5
}

; Function Attrs: mustprogress uwtable
define linkonce_odr hidden void @_ZN3refIN7datalog14lazy_table_refEE7dec_refEv(ptr noundef nonnull align 8 dereferenceable(8) %0) #4 comdat align 2 {
  %2 = alloca ptr, align 8
  store ptr %0, ptr %2, align 8, !tbaa !85
  %3 = load ptr, ptr %2, align 8
  %4 = getelementptr inbounds nuw %class.ref, ptr %3, i32 0, i32 0
  %5 = load ptr, ptr %4, align 8, !tbaa !87
  %6 = icmp ne ptr %5, null
  br i1 %6, label %7, label %10

7:                                                ; preds = %1
  %8 = getelementptr inbounds nuw %class.ref, ptr %3, i32 0, i32 0
  %9 = load ptr, ptr %8, align 8, !tbaa !87
  call void @_ZN7datalog14lazy_table_ref7dec_refEv(ptr noundef nonnull align 8 dereferenceable(48) %9)
  br label %10

10:                                               ; preds = %7, %1
  ret void
}

; Function Attrs: mustprogress nounwind uwtable
define linkonce_odr hidden void @_ZN7datalog14lazy_table_ref7inc_refEv(ptr noundef nonnull align 8 dereferenceable(48) %0) #7 comdat align 2 {
  %2 = alloca ptr, align 8
  store ptr %0, ptr %2, align 8, !tbaa !41
  %3 = load ptr, ptr %2, align 8
  %4 = getelementptr inbounds nuw %"class.datalog::lazy_table_ref", ptr %3, i32 0, i32 3
  %5 = load i32, ptr %4, align 8, !tbaa !148
  %6 = add i32 %5, 1
  store i32 %6, ptr %4, align 8, !tbaa !148
  ret void
}

; Function Attrs: mustprogress nounwind uwtable
define linkonce_odr hidden noundef ptr @_ZN7datalog10scoped_relINS_10table_baseEE7releaseEv(ptr noundef nonnull align 8 dereferenceable(8) %0) #7 comdat align 2 {
  %2 = alloca ptr, align 8
  %3 = alloca ptr, align 8
  store ptr %0, ptr %2, align 8, !tbaa !106
  %4 = load ptr, ptr %2, align 8
  call void @llvm.lifetime.start.p0(i64 8, ptr %3) #3
  %5 = getelementptr inbounds nuw %"class.datalog::scoped_rel", ptr %4, i32 0, i32 0
  %6 = load ptr, ptr %5, align 8, !tbaa !108
  store ptr %6, ptr %3, align 8, !tbaa !37
  %7 = getelementptr inbounds nuw %"class.datalog::scoped_rel", ptr %4, i32 0, i32 0
  store ptr null, ptr %7, align 8, !tbaa !108
  %8 = load ptr, ptr %3, align 8, !tbaa !37
  call void @llvm.lifetime.end.p0(i64 8, ptr %3) #3
  ret ptr %8
}

; Function Attrs: mustprogress nounwind uwtable
define linkonce_odr hidden noundef zeroext i1 @_ZNK7datalog10scoped_relINS_10table_baseEEcvbEv(ptr noundef nonnull align 8 dereferenceable(8) %0) #7 comdat align 2 {
  %2 = alloca ptr, align 8
  store ptr %0, ptr %2, align 8, !tbaa !106
  %3 = load ptr, ptr %2, align 8
  %4 = getelementptr inbounds nuw %"class.datalog::scoped_rel", ptr %3, i32 0, i32 0
  %5 = load ptr, ptr %4, align 8, !tbaa !108
  %6 = icmp ne ptr %5, null
  ret i1 %6
}

; Function Attrs: mustprogress nounwind uwtable
define linkonce_odr hidden noundef ptr @_ZNK7datalog10scoped_relINS_10table_baseEE3getEv(ptr noundef nonnull align 8 dereferenceable(8) %0) #7 comdat align 2 {
  %2 = alloca ptr, align 8
  store ptr %0, ptr %2, align 8, !tbaa !106
  %3 = load ptr, ptr %2, align 8
  %4 = getelementptr inbounds nuw %"class.datalog::scoped_rel", ptr %3, i32 0, i32 0
  %5 = load ptr, ptr %4, align 8, !tbaa !108
  ret ptr %5
}

; Function Attrs: mustprogress uwtable
define linkonce_odr hidden void @_Z7deallocIN7datalog17tr_infrastructureINS0_12table_traitsEE10mutator_fnEEvPT_(ptr noundef %0) #4 comdat {
  %2 = alloca ptr, align 8
  store ptr %0, ptr %2, align 8, !tbaa !126
  %3 = load ptr, ptr %2, align 8, !tbaa !126
  %4 = icmp eq ptr %3, null
  br i1 %4, label %5, label %6

5:                                                ; preds = %1
  br label %12

6:                                                ; preds = %1
  %7 = load ptr, ptr %2, align 8, !tbaa !126
  %8 = load ptr, ptr %7, align 8, !tbaa !13
  %9 = getelementptr inbounds ptr, ptr %8, i64 0
  %10 = load ptr, ptr %9, align 8
  call void %10(ptr noundef nonnull align 8 dereferenceable(8) %7) #3
  %11 = load ptr, ptr %2, align 8, !tbaa !126
  call void @_ZN6memory10deallocateEPv(ptr noundef %11)
  br label %12

12:                                               ; preds = %6, %5
  ret void
}

; Function Attrs: mustprogress nounwind uwtable
define linkonce_odr hidden noundef nonnull align 8 dereferenceable(36) ptr @_ZN7datalog10scoped_relINS_10table_baseEEdeEv(ptr noundef nonnull align 8 dereferenceable(8) %0) #7 comdat align 2 {
  %2 = alloca ptr, align 8
  store ptr %0, ptr %2, align 8, !tbaa !106
  %3 = load ptr, ptr %2, align 8
  %4 = getelementptr inbounds nuw %"class.datalog::scoped_rel", ptr %3, i32 0, i32 0
  %5 = load ptr, ptr %4, align 8, !tbaa !108
  ret ptr %5
}

; Function Attrs: mustprogress nounwind uwtable
define linkonce_odr hidden noundef nonnull align 8 dereferenceable(200) ptr @_ZN7datalog14lazy_table_ref2rmEv(ptr noundef nonnull align 8 dereferenceable(48) %0) #7 comdat align 2 {
  %2 = alloca ptr, align 8
  store ptr %0, ptr %2, align 8, !tbaa !41
  %3 = load ptr, ptr %2, align 8
  %4 = getelementptr inbounds nuw %"class.datalog::lazy_table_ref", ptr %3, i32 0, i32 1
  %5 = load ptr, ptr %4, align 8, !tbaa !95
  %6 = call noundef nonnull align 8 dereferenceable(200) ptr @_ZNK7datalog17tr_infrastructureINS_12table_traitsEE13plugin_object11get_managerEv(ptr noundef nonnull align 8 dereferenceable(32) %5)
  ret ptr %6
}

; Function Attrs: mustprogress uwtable
define linkonce_odr hidden noundef nonnull align 8 dereferenceable(8) ptr @_ZN3refIN7datalog14lazy_table_refEEaSEPS1_(ptr noundef nonnull align 8 dereferenceable(8) %0, ptr noundef %1) #4 comdat align 2 {
  %3 = alloca ptr, align 8
  %4 = alloca ptr, align 8
  store ptr %0, ptr %3, align 8, !tbaa !85
  store ptr %1, ptr %4, align 8, !tbaa !41
  %5 = load ptr, ptr %3, align 8
  %6 = load ptr, ptr %4, align 8, !tbaa !41
  %7 = icmp ne ptr %6, null
  br i1 %7, label %8, label %10

8:                                                ; preds = %2
  %9 = load ptr, ptr %4, align 8, !tbaa !41
  call void @_ZN7datalog14lazy_table_ref7inc_refEv(ptr noundef nonnull align 8 dereferenceable(48) %9)
  br label %10

10:                                               ; preds = %8, %2
  call void @_ZN3refIN7datalog14lazy_table_refEE7dec_refEv(ptr noundef nonnull align 8 dereferenceable(8) %5)
  %11 = load ptr, ptr %4, align 8, !tbaa !41
  %12 = getelementptr inbounds nuw %class.ref, ptr %5, i32 0, i32 0
  store ptr %11, ptr %12, align 8, !tbaa !87
  ret ptr %5
}

; Function Attrs: mustprogress uwtable
define linkonce_odr hidden void @_ZN7datalog14lazy_table_ref13release_tableEv(ptr noundef nonnull align 8 dereferenceable(48) %0) #4 comdat align 2 {
  %2 = alloca ptr, align 8
  store ptr %0, ptr %2, align 8, !tbaa !41
  %3 = load ptr, ptr %2, align 8
  %4 = getelementptr inbounds nuw %"class.datalog::lazy_table_ref", ptr %3, i32 0, i32 4
  %5 = call noundef ptr @_ZN7datalog10scoped_relINS_10table_baseEE7releaseEv(ptr noundef nonnull align 8 dereferenceable(8) %4)
  ret void
}

; Function Attrs: mustprogress uwtable
define linkonce_odr hidden noundef nonnull align 8 dereferenceable(8) ptr @_ZN7datalog10scoped_relINS_10table_baseEEaSEPS1_(ptr noundef nonnull align 8 dereferenceable(8) %0, ptr noundef %1) #4 comdat align 2 {
  %3 = alloca ptr, align 8
  %4 = alloca ptr, align 8
  store ptr %0, ptr %3, align 8, !tbaa !106
  store ptr %1, ptr %4, align 8, !tbaa !37
  %5 = load ptr, ptr %3, align 8
  %6 = getelementptr inbounds nuw %"class.datalog::scoped_rel", ptr %5, i32 0, i32 0
  %7 = load ptr, ptr %6, align 8, !tbaa !108
  %8 = icmp ne ptr %7, null
  br i1 %8, label %9, label %17

9:                                                ; preds = %2
  %10 = load ptr, ptr %4, align 8, !tbaa !37
  %11 = getelementptr inbounds nuw %"class.datalog::scoped_rel", ptr %5, i32 0, i32 0
  %12 = load ptr, ptr %11, align 8, !tbaa !108
  %13 = icmp ne ptr %10, %12
  br i1 %13, label %14, label %17

14:                                               ; preds = %9
  %15 = getelementptr inbounds nuw %"class.datalog::scoped_rel", ptr %5, i32 0, i32 0
  %16 = load ptr, ptr %15, align 8, !tbaa !108
  call void @_ZN7datalog16universal_deleteEPNS_10table_baseE(ptr noundef %16)
  br label %17

17:                                               ; preds = %14, %9, %2
  %18 = load ptr, ptr %4, align 8, !tbaa !37
  %19 = getelementptr inbounds nuw %"class.datalog::scoped_rel", ptr %5, i32 0, i32 0
  store ptr %18, ptr %19, align 8, !tbaa !108
  ret ptr %5
}

; Function Attrs: mustprogress uwtable
define linkonce_odr hidden noundef ptr @_ZN7datalog14lazy_table_ref4evalEv(ptr noundef nonnull align 8 dereferenceable(48) %0) #4 comdat align 2 {
  %2 = alloca ptr, align 8
  store ptr %0, ptr %2, align 8, !tbaa !41
  %3 = load ptr, ptr %2, align 8
  %4 = getelementptr inbounds nuw %"class.datalog::lazy_table_ref", ptr %3, i32 0, i32 4
  %5 = call noundef zeroext i1 @_ZNK7datalog10scoped_relINS_10table_baseEEcvbEv(ptr noundef nonnull align 8 dereferenceable(8) %4)
  br i1 %5, label %13, label %6

6:                                                ; preds = %1
  %7 = load ptr, ptr %3, align 8, !tbaa !13
  %8 = getelementptr inbounds ptr, ptr %7, i64 0
  %9 = load ptr, ptr %8, align 8
  %10 = call noundef ptr %9(ptr noundef nonnull align 8 dereferenceable(48) %3)
  %11 = getelementptr inbounds nuw %"class.datalog::lazy_table_ref", ptr %3, i32 0, i32 4
  %12 = call noundef nonnull align 8 dereferenceable(8) ptr @_ZN7datalog10scoped_relINS_10table_baseEEaSEPS1_(ptr noundef nonnull align 8 dereferenceable(8) %11, ptr noundef %10)
  br label %13

13:                                               ; preds = %6, %1
  %14 = getelementptr inbounds nuw %"class.datalog::lazy_table_ref", ptr %3, i32 0, i32 4
  %15 = call noundef ptr @_ZNK7datalog10scoped_relINS_10table_baseEE3getEv(ptr noundef nonnull align 8 dereferenceable(8) %14)
  ret ptr %15
}

; Function Attrs: mustprogress nounwind uwtable
define linkonce_odr hidden noundef ptr @_ZNK3refIN7datalog14lazy_table_refEEptEv(ptr noundef nonnull align 8 dereferenceable(8) %0) #7 comdat align 2 {
  %2 = alloca ptr, align 8
  store ptr %0, ptr %2, align 8, !tbaa !85
  %3 = load ptr, ptr %2, align 8
  %4 = getelementptr inbounds nuw %class.ref, ptr %3, i32 0, i32 0
  %5 = load ptr, ptr %4, align 8, !tbaa !87
  ret ptr %5
}

; Function Attrs: mustprogress uwtable
define hidden noundef ptr @_ZN7datalog23lazy_table_filter_equal5forceEv(ptr noundef nonnull align 8 dereferenceable(72) %0) unnamed_addr #4 align 2 personality ptr @__gxx_personality_v0 {
  %2 = alloca ptr, align 8
  %3 = alloca %"class.datalog::verbose_action", align 8
  %4 = alloca ptr, align 8
  %5 = alloca ptr, align 8
  %6 = alloca i32, align 4
  store ptr %0, ptr %2, align 8, !tbaa !115
  %7 = load ptr, ptr %2, align 8
  %8 = getelementptr inbounds nuw %"class.datalog::lazy_table_filter_equal", ptr %7, i32 0, i32 3
  %9 = call noundef ptr @_ZNK3refIN7datalog14lazy_table_refEEptEv(ptr noundef nonnull align 8 dereferenceable(8) %8)
  %10 = call noundef ptr @_ZN7datalog14lazy_table_ref4evalEv(ptr noundef nonnull align 8 dereferenceable(48) %9)
  %11 = getelementptr inbounds nuw %"class.datalog::lazy_table_ref", ptr %7, i32 0, i32 4
  %12 = call noundef nonnull align 8 dereferenceable(8) ptr @_ZN7datalog10scoped_relINS_10table_baseEEaSEPS1_(ptr noundef nonnull align 8 dereferenceable(8) %11, ptr noundef %10)
  %13 = getelementptr inbounds nuw %"class.datalog::lazy_table_filter_equal", ptr %7, i32 0, i32 3
  %14 = call noundef ptr @_ZNK3refIN7datalog14lazy_table_refEEptEv(ptr noundef nonnull align 8 dereferenceable(8) %13)
  call void @_ZN7datalog14lazy_table_ref13release_tableEv(ptr noundef nonnull align 8 dereferenceable(48) %14)
  %15 = getelementptr inbounds nuw %"class.datalog::lazy_table_filter_equal", ptr %7, i32 0, i32 3
  %16 = call noundef nonnull align 8 dereferenceable(8) ptr @_ZN3refIN7datalog14lazy_table_refEEaSEPS1_(ptr noundef nonnull align 8 dereferenceable(8) %15, ptr noundef null)
  call void @llvm.lifetime.start.p0(i64 16, ptr %3) #3
  call void @_ZN7datalog14verbose_actionC1EPKcj(ptr noundef nonnull align 8 dereferenceable(16) %3, ptr noundef @.str.10, i32 noundef 11)
  call void @llvm.lifetime.start.p0(i64 8, ptr %4) #3
  %17 = invoke noundef nonnull align 8 dereferenceable(200) ptr @_ZN7datalog14lazy_table_ref2rmEv(ptr noundef nonnull align 8 dereferenceable(48) %7)
          to label %18 unwind label %40

18:                                               ; preds = %1
  %19 = getelementptr inbounds nuw %"class.datalog::lazy_table_ref", ptr %7, i32 0, i32 4
  %20 = invoke noundef nonnull align 8 dereferenceable(36) ptr @_ZN7datalog10scoped_relINS_10table_baseEEdeEv(ptr noundef nonnull align 8 dereferenceable(8) %19)
          to label %21 unwind label %40

21:                                               ; preds = %18
  %22 = getelementptr inbounds nuw %"class.datalog::lazy_table_filter_equal", ptr %7, i32 0, i32 2
  %23 = getelementptr inbounds nuw %"class.datalog::lazy_table_filter_equal", ptr %7, i32 0, i32 1
  %24 = load i32, ptr %23, align 8, !tbaa !121
  %25 = invoke noundef ptr @_ZN7datalog16relation_manager18mk_filter_equal_fnERKNS_10table_baseERKmj(ptr noundef nonnull align 8 dereferenceable(200) %17, ptr noundef nonnull align 8 dereferenceable(36) %20, ptr noundef nonnull align 8 dereferenceable(8) %22, i32 noundef %24)
          to label %26 unwind label %40

26:                                               ; preds = %21
  store ptr %25, ptr %4, align 8, !tbaa !126
  %27 = load ptr, ptr %4, align 8, !tbaa !126
  %28 = getelementptr inbounds nuw %"class.datalog::lazy_table_ref", ptr %7, i32 0, i32 4
  %29 = invoke noundef nonnull align 8 dereferenceable(36) ptr @_ZN7datalog10scoped_relINS_10table_baseEEdeEv(ptr noundef nonnull align 8 dereferenceable(8) %28)
          to label %30 unwind label %40

30:                                               ; preds = %26
  %31 = load ptr, ptr %27, align 8, !tbaa !13
  %32 = getelementptr inbounds ptr, ptr %31, i64 2
  %33 = load ptr, ptr %32, align 8
  invoke void %33(ptr noundef nonnull align 8 dereferenceable(8) %27, ptr noundef nonnull align 8 dereferenceable(36) %29)
          to label %34 unwind label %40

34:                                               ; preds = %30
  %35 = load ptr, ptr %4, align 8, !tbaa !126
  invoke void @_Z7deallocIN7datalog17tr_infrastructureINS0_12table_traitsEE10mutator_fnEEvPT_(ptr noundef %35)
          to label %36 unwind label %40

36:                                               ; preds = %34
  %37 = getelementptr inbounds nuw %"class.datalog::lazy_table_ref", ptr %7, i32 0, i32 4
  %38 = invoke noundef ptr @_ZNK7datalog10scoped_relINS_10table_baseEE3getEv(ptr noundef nonnull align 8 dereferenceable(8) %37)
          to label %39 unwind label %40

39:                                               ; preds = %36
  call void @llvm.lifetime.end.p0(i64 8, ptr %4) #3
  call void @_ZN7datalog14verbose_actionD1Ev(ptr noundef nonnull align 8 dereferenceable(16) %3) #3
  call void @llvm.lifetime.end.p0(i64 16, ptr %3) #3
  ret ptr %38

40:                                               ; preds = %36, %34, %30, %26, %21, %18, %1
  %41 = landingpad { ptr, i32 }
          cleanup
  %42 = extractvalue { ptr, i32 } %41, 0
  store ptr %42, ptr %5, align 8
  %43 = extractvalue { ptr, i32 } %41, 1
  store i32 %43, ptr %6, align 4
  call void @llvm.lifetime.end.p0(i64 8, ptr %4) #3
  call void @_ZN7datalog14verbose_actionD1Ev(ptr noundef nonnull align 8 dereferenceable(16) %3) #3
  call void @llvm.lifetime.end.p0(i64 16, ptr %3) #3
  br label %44

44:                                               ; preds = %40
  %45 = load ptr, ptr %5, align 8
  %46 = load i32, ptr %6, align 4
  %47 = insertvalue { ptr, i32 } poison, ptr %45, 0
  %48 = insertvalue { ptr, i32 } %47, i32 %46, 1
  resume { ptr, i32 } %48
}